target datalayout = "e-m:e-p270:32:32-p271:32:32-p272:64:64-i64:64-i128:128-f80:128-n8:16:32:64-S128"
target triple = "x86_64-pc-linux-gnu"

%struct.ADTSContext = type { ptr, i32, i32, i32, i32, i32, i32, i32, i32, [320 x i8] }
%struct.GetBitContext = type { ptr, ptr, i32, i32, i32 }
%struct.PutBitContext = type { i32, i32, ptr, ptr, ptr }
%struct.MPEG4AudioConfig = type { i32, i32, i32, i32, i32, i32, i32, i32, i32, i32, i32, i32 }

@.str.14 = private unnamed_addr constant [38 x i8] c"MPEG-4 AOT %d is not allowed in ADTS\0A\00", align 1
@.str.15 = private unnamed_addr constant [42 x i8] c"Escape sample rate index illegal in ADTS\0A\00", align 1
@.str.16 = private unnamed_addr constant [44 x i8] c"960/120 MDCT window is not allowed in ADTS\0A\00", align 1
@.str.17 = private unnamed_addr constant [49 x i8] c"Scalable configurations are not allowed in ADTS\0A\00", align 1
@.str.18 = private unnamed_addr constant [39 x i8] c"Extension flag is not allowed in ADTS\0A\00", align 1

; Function Attrs: alwaysinline nounwind willreturn memory(none) uwtable
define internal i32 @av_bswap32(i32 noundef %0) #5 {
  %2 = alloca i32, align 4
  store i32 %0, ptr %2, align 4, !tbaa !51
  %3 = load i32, ptr %2, align 4, !tbaa !51
  %4 = shl i32 %3, 8
  %5 = and i32 %4, 65280
  %6 = load i32, ptr %2, align 4, !tbaa !51
  %7 = lshr i32 %6, 8
  %8 = and i32 %7, 255
  %9 = or i32 %5, %8
  %10 = shl i32 %9, 16
  %11 = load i32, ptr %2, align 4, !tbaa !51
  %12 = lshr i32 %11, 16
  %13 = shl i32 %12, 8
  %14 = and i32 %13, 65280
  %15 = load i32, ptr %2, align 4, !tbaa !51
  %16 = lshr i32 %15, 16
  %17 = lshr i32 %16, 8
  %18 = and i32 %17, 255
  %19 = or i32 %14, %18
  %20 = or i32 %10, %19
  ret i32 %20
}

; Function Attrs: alwaysinline nounwind willreturn memory(none) uwtable
define internal i32 @av_clip_c(i32 noundef %0, i32 noundef %1, i32 noundef %2) #5 {
  %4 = alloca i32, align 4
  %5 = alloca i32, align 4
  %6 = alloca i32, align 4
  %7 = alloca i32, align 4
  store i32 %0, ptr %5, align 4, !tbaa !51
  store i32 %1, ptr %6, align 4, !tbaa !51
  store i32 %2, ptr %7, align 4, !tbaa !51
  %8 = load i32, ptr %5, align 4, !tbaa !51
  %9 = load i32, ptr %6, align 4, !tbaa !51
  %10 = icmp slt i32 %8, %9
  br i1 %10, label %11, label %13

11:                                               ; preds = %3
  %12 = load i32, ptr %6, align 4, !tbaa !51
  store i32 %12, ptr %4, align 4
  br label %21

13:                                               ; preds = %3
  %14 = load i32, ptr %5, align 4, !tbaa !51
  %15 = load i32, ptr %7, align 4, !tbaa !51
  %16 = icmp sgt i32 %14, %15
  br i1 %16, label %17, label %19

17:                                               ; preds = %13
  %18 = load i32, ptr %7, align 4, !tbaa !51
  store i32 %18, ptr %4, align 4
  br label %21

19:                                               ; preds = %13
  %20 = load i32, ptr %5, align 4, !tbaa !51
  store i32 %20, ptr %4, align 4
  br label %21

21:                                               ; preds = %19, %17, %11
  %22 = load i32, ptr %4, align 4
  ret i32 %22
}

; Function Attrs: inlinehint nounwind uwtable
define internal i32 @init_get_bits(ptr noundef %0, ptr noundef %1, i32 noundef %2) #4 {
  %4 = alloca ptr, align 8
  %5 = alloca ptr, align 8
  %6 = alloca i32, align 4
  %7 = alloca i32, align 4
  %8 = alloca i32, align 4
  store ptr %0, ptr %4, align 8, !tbaa !65
  store ptr %1, ptr %5, align 8, !tbaa !49
  store i32 %2, ptr %6, align 4, !tbaa !51
  call void @llvm.lifetime.start.p0(i64 4, ptr %7) #8
  call void @llvm.lifetime.start.p0(i64 4, ptr %8) #8
  store i32 0, ptr %8, align 4, !tbaa !51
  %9 = load i32, ptr %6, align 4, !tbaa !51
  %10 = icmp sge i32 %9, 2147483135
  br i1 %10, label %17, label %11

11:                                               ; preds = %3
  %12 = load i32, ptr %6, align 4, !tbaa !51
  %13 = icmp slt i32 %12, 0
  br i1 %13, label %17, label %14

14:                                               ; preds = %11
  %15 = load ptr, ptr %5, align 8, !tbaa !49
  %16 = icmp ne ptr %15, null
  br i1 %16, label %18, label %17

17:                                               ; preds = %14, %11, %3
  store i32 0, ptr %6, align 4, !tbaa !51
  store ptr null, ptr %5, align 8, !tbaa !49
  store i32 -1094995529, ptr %8, align 4, !tbaa !51
  br label %18

18:                                               ; preds = %17, %14
  %19 = load i32, ptr %6, align 4, !tbaa !51
  %20 = add nsw i32 %19, 7
  %21 = ashr i32 %20, 3
  store i32 %21, ptr %7, align 4, !tbaa !51
  %22 = load ptr, ptr %5, align 8, !tbaa !49
  %23 = load ptr, ptr %4, align 8, !tbaa !65
  %24 = getelementptr inbounds nuw %struct.GetBitContext, ptr %23, i32 0, i32 0
  store ptr %22, ptr %24, align 8, !tbaa !70
  %25 = load i32, ptr %6, align 4, !tbaa !51
  %26 = load ptr, ptr %4, align 8, !tbaa !65
  %27 = getelementptr inbounds nuw %struct.GetBitContext, ptr %26, i32 0, i32 3
  store i32 %25, ptr %27, align 4, !tbaa !84
  %28 = load i32, ptr %6, align 4, !tbaa !51
  %29 = add nsw i32 %28, 8
  %30 = load ptr, ptr %4, align 8, !tbaa !65
  %31 = getelementptr inbounds nuw %struct.GetBitContext, ptr %30, i32 0, i32 4
  store i32 %29, ptr %31, align 8, !tbaa !69
  %32 = load ptr, ptr %5, align 8, !tbaa !49
  %33 = load i32, ptr %7, align 4, !tbaa !51
  %34 = sext i32 %33 to i64
  %35 = getelementptr inbounds i8, ptr %32, i64 %34
  %36 = load ptr, ptr %4, align 8, !tbaa !65
  %37 = getelementptr inbounds nuw %struct.GetBitContext, ptr %36, i32 0, i32 1
  store ptr %35, ptr %37, align 8, !tbaa !85
  %38 = load ptr, ptr %4, align 8, !tbaa !65
  %39 = getelementptr inbounds nuw %struct.GetBitContext, ptr %38, i32 0, i32 2
  store i32 0, ptr %39, align 8, !tbaa !67
  %40 = load i32, ptr %8, align 4, !tbaa !51
  call void @llvm.lifetime.end.p0(i64 4, ptr %8) #8
  call void @llvm.lifetime.end.p0(i64 4, ptr %7) #8
  ret i32 %40
}

; Function Attrs: inlinehint nounwind uwtable
define internal void @init_put_bits(ptr noundef %0, ptr noundef %1, i32 noundef %2) #4 {
  %4 = alloca ptr, align 8
  %5 = alloca ptr, align 8
  %6 = alloca i32, align 4
  store ptr %0, ptr %4, align 8, !tbaa !72
  store ptr %1, ptr %5, align 8, !tbaa !49
  store i32 %2, ptr %6, align 4, !tbaa !51
  %7 = load i32, ptr %6, align 4, !tbaa !51
  %8 = icmp slt i32 %7, 0
  br i1 %8, label %9, label %10

9:                                                ; preds = %3
  store i32 0, ptr %6, align 4, !tbaa !51
  store ptr null, ptr %5, align 8, !tbaa !49
  br label %10

10:                                               ; preds = %9, %3
  %11 = load ptr, ptr %5, align 8, !tbaa !49
  %12 = load ptr, ptr %4, align 8, !tbaa !72
  %13 = getelementptr inbounds nuw %struct.PutBitContext, ptr %12, i32 0, i32 2
  store ptr %11, ptr %13, align 8, !tbaa !74
  %14 = load ptr, ptr %4, align 8, !tbaa !72
  %15 = getelementptr inbounds nuw %struct.PutBitContext, ptr %14, i32 0, i32 2
  %16 = load ptr, ptr %15, align 8, !tbaa !74
  %17 = load i32, ptr %6, align 4, !tbaa !51
  %18 = sext i32 %17 to i64
  %19 = getelementptr inbounds i8, ptr %16, i64 %18
  %20 = load ptr, ptr %4, align 8, !tbaa !72
  %21 = getelementptr inbounds nuw %struct.PutBitContext, ptr %20, i32 0, i32 4
  store ptr %19, ptr %21, align 8, !tbaa !76
  %22 = load ptr, ptr %4, align 8, !tbaa !72
  %23 = getelementptr inbounds nuw %struct.PutBitContext, ptr %22, i32 0, i32 2
  %24 = load ptr, ptr %23, align 8, !tbaa !74
  %25 = load ptr, ptr %4, align 8, !tbaa !72
  %26 = getelementptr inbounds nuw %struct.PutBitContext, ptr %25, i32 0, i32 3
  store ptr %24, ptr %26, align 8, !tbaa !77
  %27 = load ptr, ptr %4, align 8, !tbaa !72
  %28 = getelementptr inbounds nuw %struct.PutBitContext, ptr %27, i32 0, i32 1
  store i32 32, ptr %28, align 4, !tbaa !78
  %29 = load ptr, ptr %4, align 8, !tbaa !72
  %30 = getelementptr inbounds nuw %struct.PutBitContext, ptr %29, i32 0, i32 0
  store i32 0, ptr %30, align 8, !tbaa !79
  ret void
}

; Function Attrs: inlinehint nounwind uwtable
define internal i32 @get_bits(ptr noundef %0, i32 noundef %1) #4 {
  %3 = alloca ptr, align 8
  %4 = alloca i32, align 4
  %5 = alloca i32, align 4
  %6 = alloca i32, align 4
  %7 = alloca i32, align 4
  %8 = alloca i32, align 4
  store ptr %0, ptr %3, align 8, !tbaa !65
  store i32 %1, ptr %4, align 4, !tbaa !51
  call void @llvm.lifetime.start.p0(i64 4, ptr %5) #8
  call void @llvm.lifetime.start.p0(i64 4, ptr %6) #8
  %9 = load ptr, ptr %3, align 8, !tbaa !65
  %10 = getelementptr inbounds nuw %struct.GetBitContext, ptr %9, i32 0, i32 2
  %11 = load i32, ptr %10, align 8, !tbaa !67
  store i32 %11, ptr %6, align 4, !tbaa !51
  call void @llvm.lifetime.start.p0(i64 4, ptr %7) #8
  call void @llvm.lifetime.start.p0(i64 4, ptr %8) #8
  %12 = load ptr, ptr %3, align 8, !tbaa !65
  %13 = getelementptr inbounds nuw %struct.GetBitContext, ptr %12, i32 0, i32 4
  %14 = load i32, ptr %13, align 8, !tbaa !69
  store i32 %14, ptr %8, align 4, !tbaa !51
  %15 = load ptr, ptr %3, align 8, !tbaa !65
  %16 = getelementptr inbounds nuw %struct.GetBitContext, ptr %15, i32 0, i32 0
  %17 = load ptr, ptr %16, align 8, !tbaa !70
  %18 = load i32, ptr %6, align 4, !tbaa !51
  %19 = lshr i32 %18, 3
  %20 = zext i32 %19 to i64
  %21 = getelementptr inbounds nuw i8, ptr %17, i64 %20
  %22 = load i32, ptr %21, align 1, !tbaa !71
  %23 = call i32 @av_bswap32(i32 noundef %22) #9
  %24 = load i32, ptr %6, align 4, !tbaa !51
  %25 = and i32 %24, 7
  %26 = shl i32 %23, %25
  %27 = lshr i32 %26, 0
  store i32 %27, ptr %7, align 4, !tbaa !51
  %28 = load i32, ptr %7, align 4, !tbaa !51
  %29 = load i32, ptr %4, align 4, !tbaa !51
  %30 = sub nsw i32 32, %29
  %31 = lshr i32 %28, %30
  store i32 %31, ptr %5, align 4, !tbaa !51
  %32 = load i32, ptr %8, align 4, !tbaa !51
  %33 = load i32, ptr %6, align 4, !tbaa !51
  %34 = load i32, ptr %4, align 4, !tbaa !51
  %35 = add i32 %33, %34
  %36 = icmp ugt i32 %32, %35
  br i1 %36, label %37, label %41

37:                                               ; preds = %2
  %38 = load i32, ptr %6, align 4, !tbaa !51
  %39 = load i32, ptr %4, align 4, !tbaa !51
  %40 = add i32 %38, %39
  br label %43

41:                                               ; preds = %2
  %42 = load i32, ptr %8, align 4, !tbaa !51
  br label %43

43:                                               ; preds = %41, %37
  %44 = phi i32 [ %40, %37 ], [ %42, %41 ]
  store i32 %44, ptr %6, align 4, !tbaa !51
  %45 = load i32, ptr %6, align 4, !tbaa !51
  %46 = load ptr, ptr %3, align 8, !tbaa !65
  %47 = getelementptr inbounds nuw %struct.GetBitContext, ptr %46, i32 0, i32 2
  store i32 %45, ptr %47, align 8, !tbaa !67
  %48 = load i32, ptr %5, align 4, !tbaa !51
  call void @llvm.lifetime.end.p0(i64 4, ptr %8) #8
  call void @llvm.lifetime.end.p0(i64 4, ptr %7) #8
  call void @llvm.lifetime.end.p0(i64 4, ptr %6) #8
  call void @llvm.lifetime.end.p0(i64 4, ptr %5) #8
  ret i32 %48
}

; Function Attrs: inlinehint nounwind uwtable
define internal void @skip_bits_long(ptr noundef %0, i32 noundef %1) #4 {
  %3 = alloca ptr, align 8
  %4 = alloca i32, align 4
  store ptr %0, ptr %3, align 8, !tbaa !65
  store i32 %1, ptr %4, align 4, !tbaa !51
  %5 = load i32, ptr %4, align 4, !tbaa !51
  %6 = load ptr, ptr %3, align 8, !tbaa !65
  %7 = getelementptr inbounds nuw %struct.GetBitContext, ptr %6, i32 0, i32 2
  %8 = load i32, ptr %7, align 8, !tbaa !67
  %9 = sub nsw i32 0, %8
  %10 = load ptr, ptr %3, align 8, !tbaa !65
  %11 = getelementptr inbounds nuw %struct.GetBitContext, ptr %10, i32 0, i32 4
  %12 = load i32, ptr %11, align 8, !tbaa !69
  %13 = load ptr, ptr %3, align 8, !tbaa !65
  %14 = getelementptr inbounds nuw %struct.GetBitContext, ptr %13, i32 0, i32 2
  %15 = load i32, ptr %14, align 8, !tbaa !67
  %16 = sub nsw i32 %12, %15
  %17 = call i32 @av_clip_c(i32 noundef %5, i32 noundef %9, i32 noundef %16) #9
  %18 = load ptr, ptr %3, align 8, !tbaa !65
  %19 = getelementptr inbounds nuw %struct.GetBitContext, ptr %18, i32 0, i32 2
  %20 = load i32, ptr %19, align 8, !tbaa !67
  %21 = add nsw i32 %20, %17
  store i32 %21, ptr %19, align 8, !tbaa !67
  ret void
}

; Function Attrs: inlinehint nounwind uwtable
define internal i32 @init_get_bits8(ptr noundef %0, ptr noundef %1, i32 noundef %2) #4 {
  %4 = alloca ptr, align 8
  %5 = alloca ptr, align 8
  %6 = alloca i32, align 4
  store ptr %0, ptr %4, align 8, !tbaa !65
  store ptr %1, ptr %5, align 8, !tbaa !49
  store i32 %2, ptr %6, align 4, !tbaa !51
  %7 = load i32, ptr %6, align 4, !tbaa !51
  %8 = icmp sgt i32 %7, 268435455
  br i1 %8, label %12, label %9

9:                                                ; preds = %3
  %10 = load i32, ptr %6, align 4, !tbaa !51
  %11 = icmp slt i32 %10, 0
  br i1 %11, label %12, label %13

12:                                               ; preds = %9, %3
  store i32 -1, ptr %6, align 4, !tbaa !51
  br label %13

13:                                               ; preds = %12, %9
  %14 = load ptr, ptr %4, align 8, !tbaa !65
  %15 = load ptr, ptr %5, align 8, !tbaa !49
  %16 = load i32, ptr %6, align 4, !tbaa !51
  %17 = mul nsw i32 %16, 8
  %18 = call i32 @init_get_bits(ptr noundef %14, ptr noundef %15, i32 noundef %17)
  ret i32 %18
}

; Function Attrs: nounwind uwtable
define internal i32 @adts_decode_extradata(ptr noundef %0, ptr noundef %1, ptr noundef %2, i32 noundef %3) #0 {
  %5 = alloca i32, align 4
  %6 = alloca ptr, align 8
  %7 = alloca ptr, align 8
  %8 = alloca ptr, align 8
  %9 = alloca i32, align 4
  %10 = alloca %struct.GetBitContext, align 8
  %11 = alloca %struct.PutBitContext, align 8
  %12 = alloca %struct.MPEG4AudioConfig, align 4
  %13 = alloca i32, align 4
  %14 = alloca i32, align 4
  %15 = alloca i32, align 4
  store ptr %0, ptr %6, align 8, !tbaa !4
  store ptr %1, ptr %7, align 8, !tbaa !26
  store ptr %2, ptr %8, align 8, !tbaa !49
  store i32 %3, ptr %9, align 4, !tbaa !51
  call void @llvm.lifetime.start.p0(i64 32, ptr %10) #8
  call void @llvm.lifetime.start.p0(i64 32, ptr %11) #8
  call void @llvm.lifetime.start.p0(i64 48, ptr %12) #8
  call void @llvm.lifetime.start.p0(i64 4, ptr %13) #8
  call void @llvm.lifetime.start.p0(i64 4, ptr %14) #8
  %16 = load ptr, ptr %8, align 8, !tbaa !49
  %17 = load i32, ptr %9, align 4, !tbaa !51
  %18 = call i32 @init_get_bits8(ptr noundef %10, ptr noundef %16, i32 noundef %17)
  store i32 %18, ptr %14, align 4, !tbaa !51
  %19 = load i32, ptr %14, align 4, !tbaa !51
  %20 = icmp slt i32 %19, 0
  br i1 %20, label %21, label %23

21:                                               ; preds = %4
  %22 = load i32, ptr %14, align 4, !tbaa !51
  store i32 %22, ptr %5, align 4
  store i32 1, ptr %15, align 4
  br label %96

23:                                               ; preds = %4
  %24 = load ptr, ptr %8, align 8, !tbaa !49
  %25 = load i32, ptr %9, align 4, !tbaa !51
  %26 = load ptr, ptr %6, align 8, !tbaa !4
  %27 = call i32 @avpriv_mpeg4audio_get_config2(ptr noundef %12, ptr noundef %24, i32 noundef %25, i32 noundef 1, ptr noundef %26)
  store i32 %27, ptr %13, align 4, !tbaa !51
  %28 = load i32, ptr %13, align 4, !tbaa !51
  %29 = icmp slt i32 %28, 0
  br i1 %29, label %30, label %32

30:                                               ; preds = %23
  %31 = load i32, ptr %13, align 4, !tbaa !51
  store i32 %31, ptr %5, align 4
  store i32 1, ptr %15, align 4
  br label %96

32:                                               ; preds = %23
  %33 = load i32, ptr %13, align 4, !tbaa !51
  call void @skip_bits_long(ptr noundef %10, i32 noundef %33)
  %34 = getelementptr inbounds nuw %struct.MPEG4AudioConfig, ptr %12, i32 0, i32 0
  %35 = load i32, ptr %34, align 4, !tbaa !57
  %36 = sub nsw i32 %35, 1
  %37 = load ptr, ptr %7, align 8, !tbaa !26
  %38 = getelementptr inbounds nuw %struct.ADTSContext, ptr %37, i32 0, i32 2
  store i32 %36, ptr %38, align 4, !tbaa !59
  %39 = getelementptr inbounds nuw %struct.MPEG4AudioConfig, ptr %12, i32 0, i32 1
  %40 = load i32, ptr %39, align 4, !tbaa !60
  %41 = load ptr, ptr %7, align 8, !tbaa !26
  %42 = getelementptr inbounds nuw %struct.ADTSContext, ptr %41, i32 0, i32 3
  store i32 %40, ptr %42, align 8, !tbaa !61
  %43 = getelementptr inbounds nuw %struct.MPEG4AudioConfig, ptr %12, i32 0, i32 3
  %44 = load i32, ptr %43, align 4, !tbaa !62
  %45 = load ptr, ptr %7, align 8, !tbaa !26
  %46 = getelementptr inbounds nuw %struct.ADTSContext, ptr %45, i32 0, i32 4
  store i32 %44, ptr %46, align 4, !tbaa !63
  %47 = load ptr, ptr %7, align 8, !tbaa !26
  %48 = getelementptr inbounds nuw %struct.ADTSContext, ptr %47, i32 0, i32 2
  %49 = load i32, ptr %48, align 4, !tbaa !59
  %50 = icmp ugt i32 %49, 3
  br i1 %50, label %51, label %57

51:                                               ; preds = %32
  %52 = load ptr, ptr %6, align 8, !tbaa !4
  %53 = load ptr, ptr %7, align 8, !tbaa !26
  %54 = getelementptr inbounds nuw %struct.ADTSContext, ptr %53, i32 0, i32 2
  %55 = load i32, ptr %54, align 4, !tbaa !59
  %56 = add nsw i32 %55, 1
  call void (ptr, i32, ptr, ...) @av_log(ptr noundef %52, i32 noundef 16, ptr noundef @.str.14, i32 noundef %56)
  store i32 -1094995529, ptr %5, align 4
  store i32 1, ptr %15, align 4
  br label %96

57:                                               ; preds = %32
  %58 = load ptr, ptr %7, align 8, !tbaa !26
  %59 = getelementptr inbounds nuw %struct.ADTSContext, ptr %58, i32 0, i32 3
  %60 = load i32, ptr %59, align 8, !tbaa !61
  %61 = icmp eq i32 %60, 15
  br i1 %61, label %62, label %64

62:                                               ; preds = %57
  %63 = load ptr, ptr %6, align 8, !tbaa !4
  call void (ptr, i32, ptr, ...) @av_log(ptr noundef %63, i32 noundef 16, ptr noundef @.str.15)
  store i32 -1094995529, ptr %5, align 4
  store i32 1, ptr %15, align 4
  br label %96

64:                                               ; preds = %57
  %65 = call i32 @get_bits(ptr noundef %10, i32 noundef 1)
  %66 = icmp ne i32 %65, 0
  br i1 %66, label %67, label %69

67:                                               ; preds = %64
  %68 = load ptr, ptr %6, align 8, !tbaa !4
  call void (ptr, i32, ptr, ...) @av_log(ptr noundef %68, i32 noundef 16, ptr noundef @.str.16)
  store i32 -1094995529, ptr %5, align 4
  store i32 1, ptr %15, align 4
  br label %96

69:                                               ; preds = %64
  %70 = call i32 @get_bits(ptr noundef %10, i32 noundef 1)
  %71 = icmp ne i32 %70, 0
  br i1 %71, label %72, label %74

72:                                               ; preds = %69
  %73 = load ptr, ptr %6, align 8, !tbaa !4
  call void (ptr, i32, ptr, ...) @av_log(ptr noundef %73, i32 noundef 16, ptr noundef @.str.17)
  store i32 -1094995529, ptr %5, align 4
  store i32 1, ptr %15, align 4
  br label %96

74:                                               ; preds = %69
  %75 = call i32 @get_bits(ptr noundef %10, i32 noundef 1)
  %76 = icmp ne i32 %75, 0
  br i1 %76, label %77, label %79

77:                                               ; preds = %74
  %78 = load ptr, ptr %6, align 8, !tbaa !4
  call void (ptr, i32, ptr, ...) @av_log(ptr noundef %78, i32 noundef 16, ptr noundef @.str.18)
  store i32 -1094995529, ptr %5, align 4
  store i32 1, ptr %15, align 4
  br label %96

79:                                               ; preds = %74
  %80 = load ptr, ptr %7, align 8, !tbaa !26
  %81 = getelementptr inbounds nuw %struct.ADTSContext, ptr %80, i32 0, i32 4
  %82 = load i32, ptr %81, align 4, !tbaa !63
  %83 = icmp ne i32 %82, 0
  br i1 %83, label %93, label %84

84:                                               ; preds = %79
  %85 = load ptr, ptr %7, align 8, !tbaa !26
  %86 = getelementptr inbounds nuw %struct.ADTSContext, ptr %85, i32 0, i32 9
  %87 = getelementptr inbounds [320 x i8], ptr %86, i64 0, i64 0
  call void @init_put_bits(ptr noundef %11, ptr noundef %87, i32 noundef 320)
  call void @put_bits(ptr noundef %11, i32 noundef 3, i32 noundef 5)
  %88 = call i32 @ff_copy_pce_data(ptr noundef %11, ptr noundef %10)
  %89 = add nsw i32 %88, 3
  %90 = sdiv i32 %89, 8
  %91 = load ptr, ptr %7, align 8, !tbaa !26
  %92 = getelementptr inbounds nuw %struct.ADTSContext, ptr %91, i32 0, i32 5
  store i32 %90, ptr %92, align 8, !tbaa !54
  call void @flush_put_bits(ptr noundef %11)
  br label %93

93:                                               ; preds = %84, %79
  %94 = load ptr, ptr %7, align 8, !tbaa !26
  %95 = getelementptr inbounds nuw %struct.ADTSContext, ptr %94, i32 0, i32 1
  store i32 1, ptr %95, align 8, !tbaa !53
  store i32 0, ptr %5, align 4
  store i32 1, ptr %15, align 4
  br label %96

96:                                               ; preds = %93, %77, %72, %67, %62, %51, %30, %21
  call void @llvm.lifetime.end.p0(i64 4, ptr %14) #8
  call void @llvm.lifetime.end.p0(i64 4, ptr %13) #8
  call void @llvm.lifetime.end.p0(i64 48, ptr %12) #8
  call void @llvm.lifetime.end.p0(i64 32, ptr %11) #8
  call void @llvm.lifetime.end.p0(i64 32, ptr %10) #8
  %97 = load i32, ptr %5, align 4
  ret i32 %97
}