; Function Attrs: nounwind uwtable
define internal fastcc range(i32 -2147483648, 1) i32 @adts_decode_extradata(ptr noundef %0, ptr noundef %1, ptr noundef %2, i32 noundef %3) unnamed_addr #0 {
  %5 = alloca %struct.GetBitContext, align 8
  %6 = alloca %struct.PutBitContext, align 8
  %7 = alloca %struct.MPEG4AudioConfig, align 4
  call void @llvm.lifetime.start.p0(i64 32, ptr nonnull %5) #7
  call void @llvm.lifetime.start.p0(i64 32, ptr nonnull %6) #7
  call void @llvm.lifetime.start.p0(i64 48, ptr nonnull %7) #7
  %or.cond.i = icmp ugt i32 %3, 268435455
  %8 = shl nuw nsw i32 %3, 3
  %9 = select i1 %or.cond.i, i32 -8, i32 %8
  %or.cond.i.i = icmp ult i32 %9, 2147483135
  %10 = icmp ne ptr %2, null
  %or.cond3.i.i = and i1 %10, %or.cond.i.i
  %.018.i.i = select i1 %or.cond3.i.i, i32 %9, i32 0
  %.017.i.i = select i1 %or.cond.i.i, ptr %2, ptr null
  %11 = lshr exact i32 %.018.i.i, 3
  store ptr %.017.i.i, ptr %5, align 8, !tbaa !54
  %12 = getelementptr inbounds nuw i8, ptr %5, i64 20
  store i32 %.018.i.i, ptr %12, align 4, !tbaa !56
  %13 = add nuw nsw i32 %.018.i.i, 8
  %14 = getelementptr inbounds nuw i8, ptr %5, i64 24
  store i32 %13, ptr %14, align 8, !tbaa !57
  %15 = zext nneg i32 %11 to i64
  %16 = getelementptr inbounds nuw i8, ptr %.017.i.i, i64 %15
  %17 = getelementptr inbounds nuw i8, ptr %5, i64 8
  store ptr %16, ptr %17, align 8, !tbaa !58
  %18 = getelementptr inbounds nuw i8, ptr %5, i64 16
  br i1 %or.cond3.i.i, label %19, label %85

19:                                               ; preds = %4
  %20 = call i32 @avpriv_mpeg4audio_get_config2(ptr noundef nonnull %7, ptr noundef nonnull %2, i32 noundef %3, i32 noundef 1, ptr noundef %0) #7
  %21 = icmp slt i32 %20, 0
  br i1 %21, label %85, label %22

22:                                               ; preds = %19
  %23 = call i32 @llvm.umin.i32(i32 %20, i32 %13)
  %24 = load i32, ptr %7, align 4, !tbaa !59
  %25 = add nsw i32 %24, -1
  %26 = getelementptr inbounds nuw i8, ptr %1, i64 12
  store i32 %25, ptr %26, align 4, !tbaa !46
  %27 = getelementptr inbounds nuw i8, ptr %7, i64 4
  %28 = load i32, ptr %27, align 4, !tbaa !61
  %29 = getelementptr inbounds nuw i8, ptr %1, i64 16
  store i32 %28, ptr %29, align 8, !tbaa !47
  %30 = getelementptr inbounds nuw i8, ptr %7, i64 12
  %31 = load i32, ptr %30, align 4, !tbaa !62
  %32 = getelementptr inbounds nuw i8, ptr %1, i64 20
  store i32 %31, ptr %32, align 4, !tbaa !48
  %33 = icmp ugt i32 %25, 3
  br i1 %33, label %34, label %35

34:                                               ; preds = %22
  call void (ptr, i32, ptr, ...) @av_log(ptr noundef %0, i32 noundef 16, ptr noundef nonnull @.str.14, i32 noundef %24) #7
  br label %85

35:                                               ; preds = %22
  %36 = icmp eq i32 %28, 15
  br i1 %36, label %37, label %38

37:                                               ; preds = %35
  call void (ptr, i32, ptr, ...) @av_log(ptr noundef %0, i32 noundef 16, ptr noundef nonnull @.str.15) #7
  br label %85

38:                                               ; preds = %35
  %39 = lshr i32 %23, 3
  %40 = zext nneg i32 %39 to i64
  %41 = getelementptr inbounds nuw i8, ptr %2, i64 %40
  %42 = load i32, ptr %41, align 1, !tbaa !49
  %43 = call i32 @llvm.bswap.i32(i32 %42)
  %44 = and i32 %23, 7
  %45 = shl i32 %43, %44
  %.not = icmp sgt i32 %45, -1
  br i1 %.not, label %47, label %46

46:                                               ; preds = %38
  call void (ptr, i32, ptr, ...) @av_log(ptr noundef %0, i32 noundef 16, ptr noundef nonnull @.str.16) #7
  br label %85

47:                                               ; preds = %38
  %48 = add nuw nsw i32 %23, 1
  %49 = call i32 @llvm.umin.i32(i32 %13, i32 %48)
  %50 = lshr i32 %49, 3
  %51 = zext nneg i32 %50 to i64
  %52 = getelementptr inbounds nuw i8, ptr %2, i64 %51
  %53 = load i32, ptr %52, align 1, !tbaa !49
  %54 = call i32 @llvm.bswap.i32(i32 %53)
  %55 = and i32 %49, 7
  %56 = shl i32 %54, %55
  %.not28 = icmp sgt i32 %56, -1
  br i1 %.not28, label %58, label %57

57:                                               ; preds = %47
  call void (ptr, i32, ptr, ...) @av_log(ptr noundef %0, i32 noundef 16, ptr noundef nonnull @.str.17) #7
  br label %85

58:                                               ; preds = %47
  %59 = add nuw nsw i32 %49, 1
  %60 = call i32 @llvm.umin.i32(i32 %13, i32 %59)
  %61 = lshr i32 %60, 3
  %62 = zext nneg i32 %61 to i64
  %63 = getelementptr inbounds nuw i8, ptr %2, i64 %62
  %64 = load i32, ptr %63, align 1, !tbaa !49
  %65 = call i32 @llvm.bswap.i32(i32 %64)
  %66 = and i32 %60, 7
  %67 = shl i32 %65, %66
  %68 = add nuw nsw i32 %60, 1
  %69 = call i32 @llvm.umin.i32(i32 %13, i32 %68)
  store i32 %69, ptr %18, align 8, !tbaa !63
  %.not29 = icmp sgt i32 %67, -1
  br i1 %.not29, label %71, label %70

70:                                               ; preds = %58
  call void (ptr, i32, ptr, ...) @av_log(ptr noundef %0, i32 noundef 16, ptr noundef nonnull @.str.18) #7
  br label %85

71:                                               ; preds = %58
  %.not30 = icmp eq i32 %31, 0
  br i1 %.not30, label %72, label %83

72:                                               ; preds = %71
  %73 = getelementptr inbounds nuw i8, ptr %1, i64 40
  %74 = getelementptr inbounds nuw i8, ptr %6, i64 8
  store ptr %73, ptr %74, align 8, !tbaa !64
  %75 = getelementptr inbounds nuw i8, ptr %1, i64 360
  %76 = getelementptr inbounds nuw i8, ptr %6, i64 24
  store ptr %75, ptr %76, align 8, !tbaa !66
  %77 = getelementptr inbounds nuw i8, ptr %6, i64 16
  store ptr %73, ptr %77, align 8, !tbaa !67
  %78 = getelementptr inbounds nuw i8, ptr %6, i64 4
  store i32 32, ptr %78, align 4, !tbaa !68
  store i32 0, ptr %6, align 8, !tbaa !69
  call fastcc void @put_bits(ptr noundef %6, i32 noundef 3, i32 noundef 5)
  %79 = call fastcc i32 @ff_copy_pce_data(ptr noundef %6, ptr noundef %5)
  %80 = add nsw i32 %79, 3
  %81 = sdiv i32 %80, 8
  %82 = getelementptr inbounds nuw i8, ptr %1, i64 24
  store i32 %81, ptr %82, align 8, !tbaa !44
  call fastcc void @flush_put_bits(ptr noundef %6)
  br label %83

83:                                               ; preds = %72, %71
  %84 = getelementptr inbounds nuw i8, ptr %1, i64 8
  store i32 1, ptr %84, align 8, !tbaa !43
  br label %85

85:                                               ; preds = %19, %4, %83, %70, %57, %46, %37, %34
  %.0 = phi i32 [ -1094995529, %34 ], [ -1094995529, %37 ], [ -1094995529, %46 ], [ -1094995529, %57 ], [ -1094995529, %70 ], [ 0, %83 ], [ -1094995529, %4 ], [ %20, %19 ]
  call void @llvm.lifetime.end.p0(i64 48, ptr nonnull %7) #7
  call void @llvm.lifetime.end.p0(i64 32, ptr nonnull %6) #7
  call void @llvm.lifetime.end.p0(i64 32, ptr nonnull %5) #7
  ret i32 %.0
}